target datalayout = "e-m:e-p270:32:32-p271:32:32-p272:64:64-i64:64-i128:128-f80:128-n8:16:32:64-S128"
target triple = "x86_64-pc-linux-gnu"

%"struct.std::_Rb_tree_header" = type { %"struct.std::_Rb_tree_node_base", i64 }
%"struct.std::_Rb_tree_node_base" = type { i32, ptr, ptr, ptr }
%"class.std::__cxx11::basic_string" = type { %"struct.std::__cxx11::basic_string<char>::_Alloc_hider", i64, %union.anon }
%"struct.std::__cxx11::basic_string<char>::_Alloc_hider" = type { ptr }
%union.anon = type { i64, [8 x i8] }
%"struct.Yosys::RTLIL::SigSpec" = type { i32, i32, %"class.std::vector.37", %"class.std::vector.42" }
%"class.std::vector.37" = type { %"struct.std::_Vector_base.38" }
%"struct.std::_Vector_base.38" = type { %"struct.std::_Vector_base<Yosys::RTLIL::SigChunk, std::allocator<Yosys::RTLIL::SigChunk>>::_Vector_impl" }
%"struct.std::_Vector_base<Yosys::RTLIL::SigChunk, std::allocator<Yosys::RTLIL::SigChunk>>::_Vector_impl" = type { %"struct.std::_Vector_base<Yosys::RTLIL::SigChunk, std::allocator<Yosys::RTLIL::SigChunk>>::_Vector_impl_data" }
%"struct.std::_Vector_base<Yosys::RTLIL::SigChunk, std::allocator<Yosys::RTLIL::SigChunk>>::_Vector_impl_data" = type { ptr, ptr, ptr }
%"class.std::vector.42" = type { %"struct.std::_Vector_base.43" }
%"struct.std::_Vector_base.43" = type { %"struct.std::_Vector_base<Yosys::RTLIL::SigBit, std::allocator<Yosys::RTLIL::SigBit>>::_Vector_impl" }
%"struct.std::_Vector_base<Yosys::RTLIL::SigBit, std::allocator<Yosys::RTLIL::SigBit>>::_Vector_impl" = type { %"struct.std::_Vector_base<Yosys::RTLIL::SigBit, std::allocator<Yosys::RTLIL::SigBit>>::_Vector_impl_data" }
%"struct.std::_Vector_base<Yosys::RTLIL::SigBit, std::allocator<Yosys::RTLIL::SigBit>>::_Vector_impl_data" = type { ptr, ptr, ptr }
%"struct.Yosys::AST::AstNode" = type <{ i32, i32, %"class.std::vector.0", %"class.std::map", %"class.std::__cxx11::basic_string", %"class.std::vector.11", i8, i8, i8, i8, i8, i8, i8, i8, i8, i8, i8, i8, i8, [3 x i8], i32, i32, i32, i32, double, i8, [7 x i8], %"class.std::vector.16", i32, [4 x i8], ptr, i8, i8, [6 x i8], %"class.std::__cxx11::basic_string", %"struct.Yosys::AST::AstSrcLocType", i8, i8, i8, i8, [4 x i8] }>
%"class.std::vector.0" = type { %"struct.std::_Vector_base.1" }
%"struct.std::_Vector_base.1" = type { %"struct.std::_Vector_base<Yosys::AST::AstNode *, std::allocator<Yosys::AST::AstNode *>>::_Vector_impl" }
%"struct.std::_Vector_base<Yosys::AST::AstNode *, std::allocator<Yosys::AST::AstNode *>>::_Vector_impl" = type { %"struct.std::_Vector_base<Yosys::AST::AstNode *, std::allocator<Yosys::AST::AstNode *>>::_Vector_impl_data" }
%"struct.std::_Vector_base<Yosys::AST::AstNode *, std::allocator<Yosys::AST::AstNode *>>::_Vector_impl_data" = type { ptr, ptr, ptr }
%"class.std::map" = type { %"class.std::_Rb_tree" }
%"class.std::_Rb_tree" = type { %"struct.std::_Rb_tree<Yosys::RTLIL::IdString, std::pair<const Yosys::RTLIL::IdString, Yosys::AST::AstNode *>, std::_Select1st<std::pair<const Yosys::RTLIL::IdString, Yosys::AST::AstNode *>>, std::less<Yosys::RTLIL::IdString>>::_Rb_tree_impl" }
%"struct.std::_Rb_tree<Yosys::RTLIL::IdString, std::pair<const Yosys::RTLIL::IdString, Yosys::AST::AstNode *>, std::_Select1st<std::pair<const Yosys::RTLIL::IdString, Yosys::AST::AstNode *>>, std::less<Yosys::RTLIL::IdString>>::_Rb_tree_impl" = type { [8 x i8], %"struct.std::_Rb_tree_header" }
%"class.std::vector.11" = type { %"struct.std::_Vector_base.12" }
%"struct.std::_Vector_base.12" = type { %"struct.std::_Vector_base<Yosys::RTLIL::State, std::allocator<Yosys::RTLIL::State>>::_Vector_impl" }
%"struct.std::_Vector_base<Yosys::RTLIL::State, std::allocator<Yosys::RTLIL::State>>::_Vector_impl" = type { %"struct.std::_Vector_base<Yosys::RTLIL::State, std::allocator<Yosys::RTLIL::State>>::_Vector_impl_data" }
%"struct.std::_Vector_base<Yosys::RTLIL::State, std::allocator<Yosys::RTLIL::State>>::_Vector_impl_data" = type { ptr, ptr, ptr }
%"class.std::vector.16" = type { %"struct.std::_Vector_base.17" }
%"struct.std::_Vector_base.17" = type { %"struct.std::_Vector_base<Yosys::AST::AstNode::dimension_t, std::allocator<Yosys::AST::AstNode::dimension_t>>::_Vector_impl" }
%"struct.std::_Vector_base<Yosys::AST::AstNode::dimension_t, std::allocator<Yosys::AST::AstNode::dimension_t>>::_Vector_impl" = type { %"struct.std::_Vector_base<Yosys::AST::AstNode::dimension_t, std::allocator<Yosys::AST::AstNode::dimension_t>>::_Vector_impl_data" }
%"struct.std::_Vector_base<Yosys::AST::AstNode::dimension_t, std::allocator<Yosys::AST::AstNode::dimension_t>>::_Vector_impl_data" = type { ptr, ptr, ptr }
%"struct.Yosys::AST::AstSrcLocType" = type { i32, i32, i32, i32 }

@_ZN5Yosys12AST_INTERNAL18genRTLIL_subst_ptrE = external global ptr, align 8

; Function Attrs: mustprogress uwtable
define void @_ZN5Yosys3AST7AstNode13genWidthRTLILEibPKNS_7hashlib4dictINS_5RTLIL6SigBitES5_NS2_8hash_opsIS5_EEEE(ptr dead_on_unwind noalias writable sret(%"struct.Yosys::RTLIL::SigSpec") align 8 %0, ptr noundef nonnull align 8 dereferenceable(284) %1, i32 noundef %2, i1 noundef zeroext %3, ptr noundef %4) #4 align 2 personality ptr @__gxx_personality_v0 {
  %6 = alloca ptr, align 8
  %7 = alloca ptr, align 8
  %8 = alloca i32, align 4
  %9 = alloca i8, align 1
  %10 = alloca ptr, align 8
  %11 = alloca ptr, align 8
  %12 = alloca i8, align 1
  %13 = alloca i32, align 4
  %14 = alloca i1, align 1
  %15 = alloca ptr, align 8
  %16 = alloca i32, align 4
  store ptr %0, ptr %6, align 8
  store ptr %1, ptr %7, align 8, !tbaa !6
  store i32 %2, ptr %8, align 4, !tbaa !11
  %17 = zext i1 %3 to i8
  store i8 %17, ptr %9, align 1, !tbaa !74
  store ptr %4, ptr %10, align 8, !tbaa !188
  %18 = load ptr, ptr %7, align 8
  call void @llvm.lifetime.start.p0(i64 8, ptr %11) #3
  %19 = load ptr, ptr @_ZN5Yosys12AST_INTERNAL18genRTLIL_subst_ptrE, align 8, !tbaa !188
  store ptr %19, ptr %11, align 8, !tbaa !188
  %20 = load ptr, ptr %10, align 8, !tbaa !188
  %21 = icmp ne ptr %20, null
  br i1 %21, label %22, label %24

22:                                               ; preds = %5
  %23 = load ptr, ptr %10, align 8, !tbaa !188
  store ptr %23, ptr @_ZN5Yosys12AST_INTERNAL18genRTLIL_subst_ptrE, align 8, !tbaa !188
  br label %24

24:                                               ; preds = %22, %5
  call void @llvm.lifetime.start.p0(i64 1, ptr %12) #3
  %25 = load i8, ptr %9, align 1, !tbaa !74, !range !76, !noundef !77
  %26 = trunc i8 %25 to i1
  %27 = zext i1 %26 to i8
  store i8 %27, ptr %12, align 1, !tbaa !74
  call void @llvm.lifetime.start.p0(i64 4, ptr %13) #3
  %28 = load i32, ptr %8, align 4, !tbaa !11
  store i32 %28, ptr %13, align 4, !tbaa !11
  call void @_ZN5Yosys3AST7AstNode21detectSignWidthWorkerERiRbPb(ptr noundef nonnull align 8 dereferenceable(284) %18, ptr noundef nonnull align 4 dereferenceable(4) %13, ptr noundef nonnull align 1 dereferenceable(1) %12, ptr noundef null)
  store i1 false, ptr %14, align 1
  %29 = load i32, ptr %13, align 4, !tbaa !11
  %30 = load i8, ptr %12, align 1, !tbaa !74, !range !76, !noundef !77
  %31 = trunc i8 %30 to i1
  call void @_ZN5Yosys3AST7AstNode8genRTLILEib(ptr dead_on_unwind writable sret(%"struct.Yosys::RTLIL::SigSpec") align 8 %0, ptr noundef nonnull align 8 dereferenceable(284) %18, i32 noundef %29, i1 noundef zeroext %31)
  %32 = load ptr, ptr %11, align 8, !tbaa !188
  store ptr %32, ptr @_ZN5Yosys12AST_INTERNAL18genRTLIL_subst_ptrE, align 8, !tbaa !188
  %33 = load i32, ptr %8, align 4, !tbaa !11
  %34 = icmp sge i32 %33, 0
  br i1 %34, label %35, label %45

35:                                               ; preds = %24
  %36 = load i32, ptr %8, align 4, !tbaa !11
  %37 = getelementptr inbounds nuw %"struct.Yosys::AST::AstNode", ptr %18, i32 0, i32 10
  %38 = load i8, ptr %37, align 4, !tbaa !75, !range !76, !noundef !77
  %39 = trunc i8 %38 to i1
  invoke void @_ZN5Yosys5RTLIL7SigSpec9extend_u0Eib(ptr noundef nonnull align 8 dereferenceable(56) %0, i32 noundef %36, i1 noundef zeroext %39)
          to label %40 unwind label %41

40:                                               ; preds = %35
  br label %45

41:                                               ; preds = %35
  %42 = landingpad { ptr, i32 }
          cleanup
  %43 = extractvalue { ptr, i32 } %42, 0
  store ptr %43, ptr %15, align 8
  %44 = extractvalue { ptr, i32 } %42, 1
  store i32 %44, ptr %16, align 4
  call void @_ZN5Yosys5RTLIL7SigSpecD2Ev(ptr noundef nonnull align 8 dereferenceable(56) %0) #3
  call void @llvm.lifetime.end.p0(i64 4, ptr %13) #3
  call void @llvm.lifetime.end.p0(i64 1, ptr %12) #3
  call void @llvm.lifetime.end.p0(i64 8, ptr %11) #3
  br label %49

45:                                               ; preds = %40, %24
  store i1 true, ptr %14, align 1
  %46 = load i1, ptr %14, align 1
  br i1 %46, label %48, label %47

47:                                               ; preds = %45
  call void @_ZN5Yosys5RTLIL7SigSpecD2Ev(ptr noundef nonnull align 8 dereferenceable(56) %0) #3
  br label %48

48:                                               ; preds = %47, %45
  call void @llvm.lifetime.end.p0(i64 4, ptr %13) #3
  call void @llvm.lifetime.end.p0(i64 1, ptr %12) #3
  call void @llvm.lifetime.end.p0(i64 8, ptr %11) #3
  ret void

49:                                               ; preds = %41
  %50 = load ptr, ptr %15, align 8
  %51 = load i32, ptr %16, align 4
  %52 = insertvalue { ptr, i32 } poison, ptr %50, 0
  %53 = insertvalue { ptr, i32 } %52, i32 %51, 1
  resume { ptr, i32 } %53
}