; Function Attrs: mustprogress uwtable
define void @_ZN5Yosys3AST7AstNode13genWidthRTLILEibPKNS_7hashlib4dictINS_5RTLIL6SigBitES5_NS2_8hash_opsIS5_EEEE(ptr dead_on_unwind noalias writable sret(%"struct.Yosys::RTLIL::SigSpec") align 8 %0, ptr noundef nonnull align 8 dereferenceable(284) %1, i32 noundef %2, i1 noundef zeroext %3, ptr noundef %4) local_unnamed_addr #3 align 2 personality ptr @__gxx_personality_v0 {
  %6 = alloca i8, align 1
  %7 = alloca i32, align 4
  %8 = zext i1 %3 to i8
  %9 = load ptr, ptr @_ZN5Yosys12AST_INTERNAL18genRTLIL_subst_ptrE, align 8, !tbaa !178
  %.not = icmp eq ptr %4, null
  br i1 %.not, label %11, label %10

10:                                               ; preds = %5
  store ptr %4, ptr @_ZN5Yosys12AST_INTERNAL18genRTLIL_subst_ptrE, align 8, !tbaa !178
  br label %11

11:                                               ; preds = %10, %5
  call void @llvm.lifetime.start.p0(i64 1, ptr nonnull %6) #30
  store i8 %8, ptr %6, align 1, !tbaa !53
  call void @llvm.lifetime.start.p0(i64 4, ptr nonnull %7) #30
  store i32 %2, ptr %7, align 4, !tbaa !59
  call void @_ZN5Yosys3AST7AstNode21detectSignWidthWorkerERiRbPb(ptr noundef nonnull align 8 dereferenceable(284) %1, ptr noundef nonnull align 4 dereferenceable(4) %7, ptr noundef nonnull align 1 dereferenceable(1) %6, ptr noundef null)
  %12 = load i32, ptr %7, align 4, !tbaa !59
  %13 = load i8, ptr %6, align 1, !tbaa !53, !range !54, !noundef !55
  %14 = trunc nuw i8 %13 to i1
  call void @_ZN5Yosys3AST7AstNode8genRTLILEib(ptr dead_on_unwind writable sret(%"struct.Yosys::RTLIL::SigSpec") align 8 %0, ptr noundef nonnull align 8 dereferenceable(284) %1, i32 noundef %12, i1 noundef zeroext %14)
  store ptr %9, ptr @_ZN5Yosys12AST_INTERNAL18genRTLIL_subst_ptrE, align 8, !tbaa !178
  %15 = icmp sgt i32 %2, -1
  br i1 %15, label %16, label %22

16:                                               ; preds = %11
  %17 = getelementptr inbounds nuw i8, ptr %1, i64 140
  %18 = load i8, ptr %17, align 4, !tbaa !73, !range !54, !noundef !55
  %19 = trunc nuw i8 %18 to i1
  invoke void @_ZN5Yosys5RTLIL7SigSpec9extend_u0Eib(ptr noundef nonnull align 8 dereferenceable(56) %0, i32 noundef %2, i1 noundef zeroext %19)
          to label %22 unwind label %20

20:                                               ; preds = %16
  %21 = landingpad { ptr, i32 }
          cleanup
  call void @_ZN5Yosys5RTLIL7SigSpecD2Ev(ptr noundef nonnull align 8 dereferenceable(56) %0) #30
  call void @llvm.lifetime.end.p0(i64 4, ptr nonnull %7) #30
  call void @llvm.lifetime.end.p0(i64 1, ptr nonnull %6) #30
  resume { ptr, i32 } %21

22:                                               ; preds = %11, %16
  call void @llvm.lifetime.end.p0(i64 4, ptr nonnull %7) #30
  call void @llvm.lifetime.end.p0(i64 1, ptr nonnull %6) #30
  ret void
}